target datalayout = "e-m:e-p270:32:32-p271:32:32-p272:64:64-i64:64-i128:128-f80:128-n8:16:32:64-S128"
target triple = "x86_64-pc-linux-gnu"

%struct.lexbor_bst = type { ptr, ptr, i64 }

; Function Attrs: nounwind uwtable
define hidden void @lexbor_bst_clean(ptr noundef %0) #0 {
  %2 = alloca ptr, align 8
  store ptr %0, ptr %2, align 8
  %3 = load ptr, ptr %2, align 8
  %4 = icmp ne ptr %3, null
  br i1 %4, label %5, label %13

5:                                                ; preds = %1
  %6 = load ptr, ptr %2, align 8
  %7 = getelementptr inbounds %struct.lexbor_bst, ptr %6, i32 0, i32 0
  %8 = load ptr, ptr %7, align 8
  call void @lexbor_dobject_clean(ptr noundef %8)
  %9 = load ptr, ptr %2, align 8
  %10 = getelementptr inbounds %struct.lexbor_bst, ptr %9, i32 0, i32 1
  store ptr null, ptr %10, align 8
  %11 = load ptr, ptr %2, align 8
  %12 = getelementptr inbounds %struct.lexbor_bst, ptr %11, i32 0, i32 2
  store i64 0, ptr %12, align 8
  br label %13

13:                                               ; preds = %5, %1
  ret void
}