; Function Attrs: nounwind uwtable
define hidden void @lexbor_bst_clean(ptr noundef %0) local_unnamed_addr #0 {
  %.not = icmp eq ptr %0, null
  br i1 %.not, label %5, label %2

2:                                                ; preds = %1
  %3 = load ptr, ptr %0, align 8
  tail call void @lexbor_dobject_clean(ptr noundef %3) #5
  %4 = getelementptr inbounds i8, ptr %0, i64 8
  tail call void @llvm.memset.p0.i64(ptr noundef nonnull align 8 dereferenceable(16) %4, i8 0, i64 16, i1 false)
  br label %5

5:                                                ; preds = %2, %1
  ret void
}